target datalayout = "e-m:e-p270:32:32-p271:32:32-p272:64:64-i64:64-i128:128-f80:128-n8:16:32:64-S128"
target triple = "x86_64-pc-linux-gnu"

%"class.llvm::IntrusiveRefCntPtr" = type { ptr }
%"class.std::__cxx11::basic_string" = type { %"struct.std::__cxx11::basic_string<char>::_Alloc_hider", i64, %union.anon }
%"struct.std::__cxx11::basic_string<char>::_Alloc_hider" = type { ptr }
%union.anon = type { i64, [8 x i8] }
%"class.std::error_code" = type { i32, ptr }
%"class.llvm::SmallString" = type { %"class.llvm::SmallVector.101" }
%"class.llvm::SmallVector.101" = type { %"class.llvm::SmallVectorImpl", %"struct.llvm::SmallVectorStorage.102" }
%"class.llvm::SmallVectorImpl" = type { %"class.llvm::SmallVectorTemplateBase" }
%"class.llvm::SmallVectorTemplateBase" = type { %"class.llvm::SmallVectorTemplateCommon" }
%"class.llvm::SmallVectorTemplateCommon" = type { %"class.llvm::SmallVectorBase" }
%"class.llvm::SmallVectorBase" = type { ptr, i64, i64 }
%"struct.llvm::SmallVectorStorage.102" = type { [128 x i8] }
%"class.llvm::vfs::FileSystem.base" = type <{ %"class.llvm::RTTIExtends", %"class.llvm::ThreadSafeRefCountedBase" }>
%"class.llvm::RTTIExtends" = type { %"class.llvm::RTTIRoot" }
%"class.llvm::RTTIRoot" = type { ptr }
%"class.llvm::ThreadSafeRefCountedBase" = type { %"struct.std::atomic" }
%"struct.std::atomic" = type { %"struct.std::__atomic_base" }
%"struct.std::__atomic_base" = type { i32 }
%"class.std::allocator" = type { i8 }
%"class.llvm::vfs::RedirectingFileSystem" = type { %"class.llvm::RTTIExtends.base.123", %"class.std::vector", %"class.std::__cxx11::basic_string", %"class.llvm::IntrusiveRefCntPtr", %"class.std::__cxx11::basic_string", i8, i8, i8, i8, i8, i32, i32 }
%"class.llvm::RTTIExtends.base.123" = type { %"class.llvm::vfs::FileSystem.base" }
%"class.std::vector" = type { %"struct.std::_Vector_base" }
%"struct.std::_Vector_base" = type { %"struct.std::_Vector_base<std::unique_ptr<llvm::vfs::RedirectingFileSystem::Entry>, std::allocator<std::unique_ptr<llvm::vfs::RedirectingFileSystem::Entry>>>::_Vector_impl" }
%"struct.std::_Vector_base<std::unique_ptr<llvm::vfs::RedirectingFileSystem::Entry>, std::allocator<std::unique_ptr<llvm::vfs::RedirectingFileSystem::Entry>>>::_Vector_impl" = type { %"struct.std::_Vector_base<std::unique_ptr<llvm::vfs::RedirectingFileSystem::Entry>, std::allocator<std::unique_ptr<llvm::vfs::RedirectingFileSystem::Entry>>>::_Vector_impl_data" }
%"struct.std::_Vector_base<std::unique_ptr<llvm::vfs::RedirectingFileSystem::Entry>, std::allocator<std::unique_ptr<llvm::vfs::RedirectingFileSystem::Entry>>>::_Vector_impl_data" = type { ptr, ptr, ptr }

; Function Attrs: mustprogress nounwind uwtable
define linkonce_odr hidden noundef ptr @_ZNK4llvm25SmallVectorTemplateCommonIcvE10getFirstElEv(ptr noundef nonnull align 8 dereferenceable(24) %0) #0 comdat align 2 {
  %2 = alloca ptr, align 8
  store ptr %0, ptr %2, align 8
  %3 = load ptr, ptr %2, align 8
  %4 = getelementptr inbounds i8, ptr %3, i64 24
  ret ptr %4
}

; Function Attrs: mustprogress nounwind uwtable
define linkonce_odr hidden void @_ZN4llvm25SmallVectorTemplateCommonIcvEC2Em(ptr noundef nonnull align 8 dereferenceable(24) %0, i64 noundef %1) unnamed_addr #0 comdat align 2 {
  %3 = alloca ptr, align 8
  %4 = alloca i64, align 8
  store ptr %0, ptr %3, align 8
  store i64 %1, ptr %4, align 8
  %5 = load ptr, ptr %3, align 8
  %6 = call noundef ptr @_ZNK4llvm25SmallVectorTemplateCommonIcvE10getFirstElEv(ptr noundef nonnull align 8 dereferenceable(24) %5)
  %7 = load i64, ptr %4, align 8
  call void @_ZN4llvm15SmallVectorBaseImEC2EPvm(ptr noundef nonnull align 8 dereferenceable(24) %5, ptr noundef %6, i64 noundef %7)
  ret void
}

; Function Attrs: mustprogress nounwind uwtable
define linkonce_odr hidden noundef zeroext i1 @_ZNK4llvm25SmallVectorTemplateCommonIcvE7isSmallEv(ptr noundef nonnull align 8 dereferenceable(24) %0) #0 comdat align 2 {
  %2 = alloca ptr, align 8
  store ptr %0, ptr %2, align 8
  %3 = load ptr, ptr %2, align 8
  %4 = getelementptr inbounds nuw %"class.llvm::SmallVectorBase", ptr %3, i32 0, i32 0
  %5 = load ptr, ptr %4, align 8
  %6 = call noundef ptr @_ZNK4llvm25SmallVectorTemplateCommonIcvE10getFirstElEv(ptr noundef nonnull align 8 dereferenceable(24) %3)
  %7 = icmp eq ptr %5, %6
  ret i1 %7
}

; Function Attrs: mustprogress nounwind uwtable
define linkonce_odr hidden void @_ZN4llvm23SmallVectorTemplateBaseIcLb1EEC2Em(ptr noundef nonnull align 8 dereferenceable(24) %0, i64 noundef %1) unnamed_addr #0 comdat align 2 {
  %3 = alloca ptr, align 8
  %4 = alloca i64, align 8
  store ptr %0, ptr %3, align 8
  store i64 %1, ptr %4, align 8
  %5 = load ptr, ptr %3, align 8
  %6 = load i64, ptr %4, align 8
  call void @_ZN4llvm25SmallVectorTemplateCommonIcvEC2Em(ptr noundef nonnull align 8 dereferenceable(24) %5, i64 noundef %6)
  ret void
}

; Function Attrs: mustprogress nounwind uwtable
define linkonce_odr hidden void @_ZN4llvm15SmallVectorImplIcED2Ev(ptr noundef nonnull align 8 dereferenceable(24) %0) unnamed_addr #0 comdat align 2 {
  %2 = alloca ptr, align 8
  store ptr %0, ptr %2, align 8
  %3 = load ptr, ptr %2, align 8
  %4 = call noundef zeroext i1 @_ZNK4llvm25SmallVectorTemplateCommonIcvE7isSmallEv(ptr noundef nonnull align 8 dereferenceable(24) %3)
  br i1 %4, label %7, label %5

5:                                                ; preds = %1
  %6 = call noundef ptr @_ZN4llvm25SmallVectorTemplateCommonIcvE5beginEv(ptr noundef nonnull align 8 dereferenceable(24) %3)
  call void @free(ptr noundef %6) #5
  br label %7

7:                                                ; preds = %5, %1
  ret void
}

; Function Attrs: mustprogress nounwind uwtable
define linkonce_odr hidden void @_ZN4llvm23SmallVectorTemplateBaseIcLb1EE13destroy_rangeEPcS2_(ptr noundef %0, ptr noundef %1) #0 comdat align 2 {
  %3 = alloca ptr, align 8
  %4 = alloca ptr, align 8
  store ptr %0, ptr %3, align 8
  store ptr %1, ptr %4, align 8
  ret void
}

; Function Attrs: mustprogress nounwind uwtable
define linkonce_odr hidden noundef ptr @_ZN4llvm25SmallVectorTemplateCommonIcvE3endEv(ptr noundef nonnull align 8 dereferenceable(24) %0) #0 comdat align 2 {
  %2 = alloca ptr, align 8
  store ptr %0, ptr %2, align 8
  %3 = load ptr, ptr %2, align 8
  %4 = call noundef ptr @_ZN4llvm25SmallVectorTemplateCommonIcvE5beginEv(ptr noundef nonnull align 8 dereferenceable(24) %3)
  %5 = call noundef i64 @_ZNK4llvm15SmallVectorBaseImE4sizeEv(ptr noundef nonnull align 8 dereferenceable(24) %3)
  %6 = getelementptr inbounds i8, ptr %4, i64 %5
  ret ptr %6
}

; Function Attrs: mustprogress nounwind uwtable
define linkonce_odr hidden noundef ptr @_ZN4llvm25SmallVectorTemplateCommonIcvE5beginEv(ptr noundef nonnull align 8 dereferenceable(24) %0) #0 comdat align 2 {
  %2 = alloca ptr, align 8
  store ptr %0, ptr %2, align 8
  %3 = load ptr, ptr %2, align 8
  %4 = getelementptr inbounds nuw %"class.llvm::SmallVectorBase", ptr %3, i32 0, i32 0
  %5 = load ptr, ptr %4, align 8
  ret ptr %5
}

; Function Attrs: mustprogress nounwind uwtable
define linkonce_odr hidden noundef ptr @_ZNK4llvm25SmallVectorTemplateCommonIcvE5beginEv(ptr noundef nonnull align 8 dereferenceable(24) %0) #0 comdat align 2 {
  %2 = alloca ptr, align 8
  store ptr %0, ptr %2, align 8
  %3 = load ptr, ptr %2, align 8
  %4 = getelementptr inbounds nuw %"class.llvm::SmallVectorBase", ptr %3, i32 0, i32 0
  %5 = load ptr, ptr %4, align 8
  ret ptr %5
}

; Function Attrs: mustprogress nounwind uwtable
define linkonce_odr hidden void @_ZN4llvm15SmallVectorImplIcEC2Ej(ptr noundef nonnull align 8 dereferenceable(24) %0, i32 noundef %1) unnamed_addr #0 comdat align 2 {
  %3 = alloca ptr, align 8
  %4 = alloca i32, align 4
  store ptr %0, ptr %3, align 8
  store i32 %1, ptr %4, align 4
  %5 = load ptr, ptr %3, align 8
  %6 = load i32, ptr %4, align 4
  %7 = zext i32 %6 to i64
  call void @_ZN4llvm23SmallVectorTemplateBaseIcLb1EEC2Em(ptr noundef nonnull align 8 dereferenceable(24) %5, i64 noundef %7)
  ret void
}

; Function Attrs: mustprogress nounwind uwtable
define linkonce_odr hidden void @_ZNSt10error_codeC2EiRKNSt3_V214error_categoryE(ptr noundef nonnull align 8 dereferenceable(16) %0, i32 noundef %1, ptr noundef nonnull align 8 dereferenceable(8) %2) unnamed_addr #0 comdat align 2 {
  %4 = alloca ptr, align 8
  %5 = alloca i32, align 4
  %6 = alloca ptr, align 8
  store ptr %0, ptr %4, align 8
  store i32 %1, ptr %5, align 4
  store ptr %2, ptr %6, align 8
  %7 = load ptr, ptr %4, align 8
  %8 = getelementptr inbounds nuw %"class.std::error_code", ptr %7, i32 0, i32 0
  %9 = load i32, ptr %5, align 4
  store i32 %9, ptr %8, align 8
  %10 = getelementptr inbounds nuw %"class.std::error_code", ptr %7, i32 0, i32 1
  %11 = load ptr, ptr %6, align 8
  store ptr %11, ptr %10, align 8
  ret void
}

; Function Attrs: mustprogress nounwind uwtable
define linkonce_odr hidden void @_ZN4llvm11SmallVectorIcLj128EED2Ev(ptr noundef nonnull align 8 dereferenceable(152) %0) unnamed_addr #0 comdat align 2 {
  %2 = alloca ptr, align 8
  store ptr %0, ptr %2, align 8
  %3 = load ptr, ptr %2, align 8
  %4 = call noundef ptr @_ZN4llvm25SmallVectorTemplateCommonIcvE5beginEv(ptr noundef nonnull align 8 dereferenceable(24) %3)
  %5 = call noundef ptr @_ZN4llvm25SmallVectorTemplateCommonIcvE3endEv(ptr noundef nonnull align 8 dereferenceable(24) %3)
  call void @_ZN4llvm23SmallVectorTemplateBaseIcLb1EE13destroy_rangeEPcS2_(ptr noundef %4, ptr noundef %5)
  call void @_ZN4llvm15SmallVectorImplIcED2Ev(ptr noundef nonnull align 8 dereferenceable(24) %3) #5
  ret void
}

; Function Attrs: mustprogress nounwind uwtable
define linkonce_odr hidden noundef ptr @_ZNK4llvm25SmallVectorTemplateCommonIcvE4dataEv(ptr noundef nonnull align 8 dereferenceable(24) %0) #0 comdat align 2 {
  %2 = alloca ptr, align 8
  store ptr %0, ptr %2, align 8
  %3 = load ptr, ptr %2, align 8
  %4 = call noundef ptr @_ZNK4llvm25SmallVectorTemplateCommonIcvE5beginEv(ptr noundef nonnull align 8 dereferenceable(24) %3)
  ret ptr %4
}

; Function Attrs: mustprogress nounwind uwtable
define linkonce_odr hidden void @_ZN4llvm11SmallVectorIcLj128EEC2Ev(ptr noundef nonnull align 8 dereferenceable(152) %0) unnamed_addr #0 comdat align 2 {
  %2 = alloca ptr, align 8
  store ptr %0, ptr %2, align 8
  %3 = load ptr, ptr %2, align 8
  call void @_ZN4llvm15SmallVectorImplIcEC2Ej(ptr noundef nonnull align 8 dereferenceable(24) %3, i32 noundef 128)
  ret void
}

; Function Attrs: mustprogress nounwind uwtable
define linkonce_odr hidden { i32, ptr } @_ZN4llvm15make_error_codeENS_4errcE(i32 noundef %0) #0 comdat {
  %2 = alloca %"class.std::error_code", align 8
  %3 = alloca i32, align 4
  store i32 %0, ptr %3, align 4
  %4 = load i32, ptr %3, align 4
  %5 = call noundef nonnull align 8 dereferenceable(8) ptr @_ZNSt3_V216generic_categoryEv() #14
  call void @_ZNSt10error_codeC2EiRKNSt3_V214error_categoryE(ptr noundef nonnull align 8 dereferenceable(16) %2, i32 noundef %4, ptr noundef nonnull align 8 dereferenceable(8) %5) #5
  %6 = load { i32, ptr }, ptr %2, align 8
  ret { i32, ptr } %6
}

; Function Attrs: mustprogress nounwind uwtable
define linkonce_odr hidden void @_ZN4llvm11SmallStringILj128EED2Ev(ptr noundef nonnull align 8 dereferenceable(152) %0) unnamed_addr #0 comdat align 2 {
  %2 = alloca ptr, align 8
  store ptr %0, ptr %2, align 8
  %3 = load ptr, ptr %2, align 8
  call void @_ZN4llvm11SmallVectorIcLj128EED2Ev(ptr noundef nonnull align 8 dereferenceable(152) %3) #5
  ret void
}

; Function Attrs: mustprogress nounwind uwtable
define linkonce_odr hidden void @_ZNSt10error_codeC2Ev(ptr noundef nonnull align 8 dereferenceable(16) %0) unnamed_addr #0 comdat align 2 {
  %2 = alloca ptr, align 8
  store ptr %0, ptr %2, align 8
  %3 = load ptr, ptr %2, align 8
  %4 = getelementptr inbounds nuw %"class.std::error_code", ptr %3, i32 0, i32 0
  store i32 0, ptr %4, align 8
  %5 = getelementptr inbounds nuw %"class.std::error_code", ptr %3, i32 0, i32 1
  %6 = call noundef nonnull align 8 dereferenceable(8) ptr @_ZNSt3_V215system_categoryEv() #14
  store ptr %6, ptr %5, align 8
  ret void
}

; Function Attrs: mustprogress nounwind uwtable
define linkonce_odr hidden void @_ZNK4llvm11SmallStringILj128EEcvNSt7__cxx1112basic_stringIcSt11char_traitsIcESaIcEEEEv(ptr dead_on_unwind noalias writable sret(%"class.std::__cxx11::basic_string") align 8 %0, ptr noundef nonnull align 8 dereferenceable(152) %1) #0 comdat align 2 {
  %3 = alloca ptr, align 8
  %4 = alloca ptr, align 8
  %5 = alloca %"class.std::allocator", align 1
  store ptr %0, ptr %3, align 8
  store ptr %1, ptr %4, align 8
  %6 = load ptr, ptr %4, align 8
  %7 = call noundef ptr @_ZNK4llvm25SmallVectorTemplateCommonIcvE4dataEv(ptr noundef nonnull align 8 dereferenceable(24) %6)
  %8 = call noundef i64 @_ZNK4llvm15SmallVectorBaseImE4sizeEv(ptr noundef nonnull align 8 dereferenceable(24) %6)
  call void @_ZNSaIcEC1Ev(ptr noundef nonnull align 1 dereferenceable(1) %5) #5
  call void @_ZNSt7__cxx1112basic_stringIcSt11char_traitsIcESaIcEEC1EPKcmRKS3_(ptr noundef nonnull align 8 dereferenceable(32) %0, ptr noundef %7, i64 noundef %8, ptr noundef nonnull align 1 dereferenceable(1) %5)
  call void @_ZNSaIcED1Ev(ptr noundef nonnull align 1 dereferenceable(1) %5) #5
  ret void
}

; Function Attrs: mustprogress nounwind uwtable
define linkonce_odr hidden noundef zeroext i1 @_ZNKSt10error_codecvbEv(ptr noundef nonnull align 8 dereferenceable(16) %0) #0 comdat align 2 {
  %2 = alloca ptr, align 8
  store ptr %0, ptr %2, align 8
  %3 = load ptr, ptr %2, align 8
  %4 = getelementptr inbounds nuw %"class.std::error_code", ptr %3, i32 0, i32 0
  %5 = load i32, ptr %4, align 8
  %6 = icmp ne i32 %5, 0
  ret i1 %6
}

; Function Attrs: mustprogress nounwind uwtable
define linkonce_odr hidden void @_ZN4llvm11SmallStringILj128EEC2Ev(ptr noundef nonnull align 8 dereferenceable(152) %0) unnamed_addr #0 comdat align 2 {
  %2 = alloca ptr, align 8
  store ptr %0, ptr %2, align 8
  %3 = load ptr, ptr %2, align 8
  call void @_ZN4llvm11SmallVectorIcLj128EEC2Ev(ptr noundef nonnull align 8 dereferenceable(152) %3)
  ret void
}

; Function Attrs: mustprogress nounwind uwtable
define linkonce_odr hidden void @_ZNSt10error_codeC2IN4llvm4errcEvEET_(ptr noundef nonnull align 8 dereferenceable(16) %0, i32 noundef %1) unnamed_addr #0 comdat align 2 {
  %3 = alloca ptr, align 8
  %4 = alloca i32, align 4
  %5 = alloca %"class.std::error_code", align 8
  store ptr %0, ptr %3, align 8
  store i32 %1, ptr %4, align 4
  %6 = load ptr, ptr %3, align 8
  %7 = load i32, ptr %4, align 4
  %8 = call { i32, ptr } @_ZN4llvm15make_error_codeENS_4errcE(i32 noundef %7)
  %9 = getelementptr inbounds nuw { i32, ptr }, ptr %5, i32 0, i32 0
  %10 = extractvalue { i32, ptr } %8, 0
  store i32 %10, ptr %9, align 8
  %11 = getelementptr inbounds nuw { i32, ptr }, ptr %5, i32 0, i32 1
  %12 = extractvalue { i32, ptr } %8, 1
  store ptr %12, ptr %11, align 8
  call void @llvm.memcpy.p0.p0.i64(ptr align 8 %6, ptr align 8 %5, i64 16, i1 false)
  ret void
}

; Function Attrs: mustprogress nounwind uwtable
define dso_local { i32, ptr } @_ZN4llvm3vfs21RedirectingFileSystem26setCurrentWorkingDirectoryERKNS_5TwineE(ptr noundef nonnull align 8 dereferenceable(128) %0, ptr noundef nonnull align 8 dereferenceable(34) %1) unnamed_addr #0 align 2 {
  %3 = alloca %"class.std::error_code", align 8
  %4 = alloca ptr, align 8
  %5 = alloca ptr, align 8
  %6 = alloca %"class.llvm::SmallString", align 8
  %7 = alloca i32, align 4
  %8 = alloca %"class.std::__cxx11::basic_string", align 8
  store ptr %0, ptr %4, align 8
  store ptr %1, ptr %5, align 8
  %9 = load ptr, ptr %4, align 8
  %10 = load ptr, ptr %5, align 8
  %11 = load ptr, ptr %9, align 8
  %12 = getelementptr inbounds ptr, ptr %11, i64 11
  %13 = load ptr, ptr %12, align 8
  %14 = call noundef zeroext i1 %13(ptr noundef nonnull align 8 dereferenceable(128) %9, ptr noundef nonnull align 8 dereferenceable(34) %10)
  br i1 %14, label %16, label %15

15:                                               ; preds = %2
  call void @_ZNSt10error_codeC2IN4llvm4errcEvEET_(ptr noundef nonnull align 8 dereferenceable(16) %3, i32 noundef 2) #5
  br label %32

16:                                               ; preds = %2
  call void @_ZN4llvm11SmallStringILj128EEC2Ev(ptr noundef nonnull align 8 dereferenceable(152) %6)
  %17 = load ptr, ptr %5, align 8
  call void @_ZNK4llvm5Twine8toVectorERNS_15SmallVectorImplIcEE(ptr noundef nonnull align 8 dereferenceable(34) %17, ptr noundef nonnull align 8 dereferenceable(24) %6)
  %18 = load ptr, ptr %9, align 8
  %19 = getelementptr inbounds ptr, ptr %18, i64 13
  %20 = load ptr, ptr %19, align 8
  %21 = call { i32, ptr } %20(ptr noundef nonnull align 8 dereferenceable(128) %9, ptr noundef nonnull align 8 dereferenceable(24) %6)
  %22 = getelementptr inbounds nuw { i32, ptr }, ptr %3, i32 0, i32 0
  %23 = extractvalue { i32, ptr } %21, 0
  store i32 %23, ptr %22, align 8
  %24 = getelementptr inbounds nuw { i32, ptr }, ptr %3, i32 0, i32 1
  %25 = extractvalue { i32, ptr } %21, 1
  store ptr %25, ptr %24, align 8
  %26 = call noundef zeroext i1 @_ZNKSt10error_codecvbEv(ptr noundef nonnull align 8 dereferenceable(16) %3) #5
  br i1 %26, label %27, label %28

27:                                               ; preds = %16
  store i32 1, ptr %7, align 4
  br label %31

28:                                               ; preds = %16
  call void @_ZNK4llvm11SmallStringILj128EEcvNSt7__cxx1112basic_stringIcSt11char_traitsIcESaIcEEEEv(ptr dead_on_unwind writable sret(%"class.std::__cxx11::basic_string") align 8 %8, ptr noundef nonnull align 8 dereferenceable(152) %6)
  %29 = getelementptr inbounds nuw %"class.llvm::vfs::RedirectingFileSystem", ptr %9, i32 0, i32 2
  %30 = call noundef nonnull align 8 dereferenceable(32) ptr @_ZNSt7__cxx1112basic_stringIcSt11char_traitsIcESaIcEEaSEOS4_(ptr noundef nonnull align 8 dereferenceable(32) %29, ptr noundef nonnull align 8 dereferenceable(32) %8) #5
  call void @_ZNSt7__cxx1112basic_stringIcSt11char_traitsIcESaIcEED1Ev(ptr noundef nonnull align 8 dereferenceable(32) %8) #5
  call void @_ZNSt10error_codeC2Ev(ptr noundef nonnull align 8 dereferenceable(16) %3) #5
  store i32 1, ptr %7, align 4
  br label %31

31:                                               ; preds = %28, %27
  call void @_ZN4llvm11SmallStringILj128EED2Ev(ptr noundef nonnull align 8 dereferenceable(152) %6) #5
  br label %32

32:                                               ; preds = %31, %15
  %33 = load { i32, ptr }, ptr %3, align 8
  ret { i32, ptr } %33
}