; Function Attrs: mustprogress nounwind uwtable
define dso_local { i32, ptr } @_ZN4llvm3vfs21RedirectingFileSystem26setCurrentWorkingDirectoryERKNS_5TwineE(ptr noundef nonnull align 8 dereferenceable(128) %0, ptr noundef nonnull align 8 dereferenceable(34) %1) unnamed_addr #0 align 2 {
  %3 = alloca %"class.std::allocator", align 1
  %4 = alloca %"class.llvm::SmallString", align 8
  %5 = alloca %"class.std::__cxx11::basic_string", align 8
  %6 = load ptr, ptr %0, align 8
  %7 = getelementptr inbounds i8, ptr %6, i64 88
  %8 = load ptr, ptr %7, align 8
  %9 = tail call noundef zeroext i1 %8(ptr noundef nonnull align 8 dereferenceable(128) %0, ptr noundef nonnull align 8 dereferenceable(34) %1) #27
  br i1 %9, label %12, label %10

10:                                               ; preds = %2
  %11 = tail call noundef nonnull align 8 dereferenceable(8) ptr @_ZNSt3_V216generic_categoryEv() #29
  br label %_ZN4llvm11SmallStringILj128EED2Ev.exit

12:                                               ; preds = %2
  %13 = getelementptr inbounds i8, ptr %4, i64 24
  call void @_ZN4llvm15SmallVectorBaseImEC2EPvm(ptr noundef nonnull align 8 dereferenceable(24) %4, ptr noundef nonnull %13, i64 noundef 128) #27
  call void @_ZNK4llvm5Twine8toVectorERNS_15SmallVectorImplIcEE(ptr noundef nonnull align 8 dereferenceable(34) %1, ptr noundef nonnull align 8 dereferenceable(24) %4) #27
  %14 = load ptr, ptr %0, align 8
  %15 = getelementptr inbounds i8, ptr %14, i64 104
  %16 = load ptr, ptr %15, align 8
  %17 = call { i32, ptr } %16(ptr noundef nonnull align 8 dereferenceable(128) %0, ptr noundef nonnull align 8 dereferenceable(24) %4) #27
  %18 = extractvalue { i32, ptr } %17, 0
  %19 = extractvalue { i32, ptr } %17, 1
  %.not = icmp eq i32 %18, 0
  br i1 %.not, label %20, label %26

20:                                               ; preds = %12
  call void @llvm.lifetime.start.p0(i64 1, ptr nonnull %3)
  %21 = load ptr, ptr %4, align 8, !noalias !129
  %22 = call noundef i64 @_ZNK4llvm15SmallVectorBaseImE4sizeEv(ptr noundef nonnull align 8 dereferenceable(24) %4) #27, !noalias !129
  call void @_ZNSaIcEC1Ev(ptr noundef nonnull align 1 dereferenceable(1) %3) #27, !noalias !129
  call void @_ZNSt7__cxx1112basic_stringIcSt11char_traitsIcESaIcEEC1EPKcmRKS3_(ptr noundef nonnull align 8 dereferenceable(32) %5, ptr noundef %21, i64 noundef %22, ptr noundef nonnull align 1 dereferenceable(1) %3) #27
  call void @_ZNSaIcED1Ev(ptr noundef nonnull align 1 dereferenceable(1) %3) #27
  call void @llvm.lifetime.end.p0(i64 1, ptr nonnull %3)
  %23 = getelementptr inbounds nuw i8, ptr %0, i64 40
  %24 = call noundef nonnull align 8 dereferenceable(32) ptr @_ZNSt7__cxx1112basic_stringIcSt11char_traitsIcESaIcEEaSEOS4_(ptr noundef nonnull align 8 dereferenceable(32) %23, ptr noundef nonnull align 8 dereferenceable(32) %5) #27
  call void @_ZNSt7__cxx1112basic_stringIcSt11char_traitsIcESaIcEED1Ev(ptr noundef nonnull align 8 dereferenceable(32) %5) #27
  %25 = tail call noundef nonnull align 8 dereferenceable(8) ptr @_ZNSt3_V215system_categoryEv() #29
  br label %26

26:                                               ; preds = %12, %20
  %.sroa.5.1 = phi ptr [ %19, %12 ], [ %25, %20 ]
  %27 = call noundef i64 @_ZNK4llvm15SmallVectorBaseImE4sizeEv(ptr noundef nonnull align 8 dereferenceable(24) %4) #27
  %28 = load ptr, ptr %4, align 8
  %29 = icmp eq ptr %28, %13
  br i1 %29, label %_ZN4llvm11SmallStringILj128EED2Ev.exit, label %30

30:                                               ; preds = %26
  call void @free(ptr noundef %28) #27
  br label %_ZN4llvm11SmallStringILj128EED2Ev.exit

_ZN4llvm11SmallStringILj128EED2Ev.exit:           ; preds = %30, %26, %10
  %.sroa.5.0 = phi ptr [ %11, %10 ], [ %.sroa.5.1, %26 ], [ %.sroa.5.1, %30 ]
  %.sroa.0.0 = phi i32 [ 2, %10 ], [ %18, %26 ], [ %18, %30 ]
  %.fca.0.insert = insertvalue { i32, ptr } poison, i32 %.sroa.0.0, 0
  %.fca.1.insert = insertvalue { i32, ptr } %.fca.0.insert, ptr %.sroa.5.0, 1
  ret { i32, ptr } %.fca.1.insert
}